target datalayout = "e-m:e-p270:32:32-p271:32:32-p272:64:64-i64:64-i128:128-f80:128-n8:16:32:64-S128"
target triple = "x86_64-unknown-linux-gnu"

%struct.RAMBlock = type { %struct.rcu_head, ptr, ptr, ptr, i64, i64, i64, ptr, i32, [256 x i8], %struct.anon.2, %struct.anon.3, i32, i64, i64, ptr, ptr, ptr, i8, i64 }
%struct.rcu_head = type { ptr, ptr }
%struct.anon.2 = type { ptr, ptr }
%struct.anon.3 = type { ptr }
%struct.MemoryRegionSection = type { i128, ptr, ptr, i64, i64, i8, i8, i8 }
%struct.Object = type { ptr, ptr, ptr, i32, ptr }
%struct.MemoryRegion = type { %struct.Object, i8, i8, i8, i8, i8, i8, i8, i8, i8, i8, ptr, ptr, ptr, ptr, ptr, ptr, i32, i128, i64, ptr, i64, i8, i8, i8, i8, i8, ptr, i64, i32, %union.anon, %union.anon.8, %union.anon.9, ptr, i32, ptr, ptr, i8 }
%union.anon = type { %struct.QTailQLink }
%struct.QTailQLink = type { ptr, ptr }
%union.anon.8 = type { %struct.QTailQLink }
%union.anon.9 = type { %struct.QTailQLink }

@.str.29 = private unnamed_addr constant [7 x i8] c"r == a\00", align 1
@.str.30 = private unnamed_addr constant [100 x i8] c"/home/dtcxzyw/WorkSpace/Projects/compilers/llvm-opt-benchmark/bench/qemu/qemu/include/qemu/int128.h\00", align 1
@__PRETTY_FUNCTION__.int128_get64 = private unnamed_addr constant [30 x i8] c"uint64_t int128_get64(Int128)\00", align 1

; Function Attrs: nounwind sspstrong uwtable
define internal i32 @ctpop64(i64 noundef %val) #0 {
entry:
  %val.addr = alloca i64, align 8
  store i64 %val, ptr %val.addr, align 8
  %0 = load i64, ptr %val.addr, align 8
  %1 = call i64 @llvm.ctpop.i64(i64 %0)
  %cast = trunc i64 %1 to i32
  ret i32 %cast
}

; Function Attrs: nounwind sspstrong uwtable
define internal i64 @bitmap_count_one(ptr noundef %bitmap, i64 noundef %nbits) #0 {
entry:
  %retval = alloca i64, align 8
  %bitmap.addr = alloca ptr, align 8
  %nbits.addr = alloca i64, align 8
  store ptr %bitmap, ptr %bitmap.addr, align 8
  store i64 %nbits, ptr %nbits.addr, align 8
  %0 = load i64, ptr %nbits.addr, align 8
  %tobool = icmp ne i64 %0, 0
  %lnot = xor i1 %tobool, true
  %lnot1 = xor i1 %lnot, true
  %lnot2 = xor i1 %lnot1, true
  %lnot.ext = zext i1 %lnot2 to i32
  %conv = sext i32 %lnot.ext to i64
  %tobool3 = icmp ne i64 %conv, 0
  br i1 %tobool3, label %if.then, label %if.end

if.then:                                          ; preds = %entry
  store i64 0, ptr %retval, align 8
  br label %return

if.end:                                           ; preds = %entry
  %1 = load i64, ptr %nbits.addr, align 8
  %cmp = icmp ule i64 %1, 64
  br i1 %cmp, label %if.then5, label %if.else

if.then5:                                         ; preds = %if.end
  %2 = load ptr, ptr %bitmap.addr, align 8
  %3 = load i64, ptr %2, align 8
  %4 = load i64, ptr %nbits.addr, align 8
  %sub = sub i64 0, %4
  %and = and i64 %sub, 63
  %shr = lshr i64 -1, %and
  %and6 = and i64 %3, %shr
  %call = call i32 @ctpop64(i64 noundef %and6)
  %conv7 = sext i32 %call to i64
  store i64 %conv7, ptr %retval, align 8
  br label %return

if.else:                                          ; preds = %if.end
  %5 = load ptr, ptr %bitmap.addr, align 8
  %6 = load i64, ptr %nbits.addr, align 8
  %call8 = call i64 @slow_bitmap_count_one(ptr noundef %5, i64 noundef %6)
  store i64 %call8, ptr %retval, align 8
  br label %return

return:                                           ; preds = %if.else, %if.then5, %if.then
  %7 = load i64, ptr %retval, align 8
  ret i64 %7
}

; Function Attrs: nounwind sspstrong uwtable
define internal i64 @bitmap_count_one_with_offset(ptr noundef %bitmap, i64 noundef %offset, i64 noundef %nbits) #0 {
entry:
  %bitmap.addr = alloca ptr, align 8
  %offset.addr = alloca i64, align 8
  %nbits.addr = alloca i64, align 8
  %aligned_offset = alloca i64, align 8
  %redundant_bits = alloca i64, align 8
  %bits_to_count = alloca i64, align 8
  %bitmap_start = alloca ptr, align 8
  store ptr %bitmap, ptr %bitmap.addr, align 8
  store i64 %offset, ptr %offset.addr, align 8
  store i64 %nbits, ptr %nbits.addr, align 8
  %0 = load i64, ptr %offset.addr, align 8
  %div = udiv i64 %0, 64
  %mul = mul i64 %div, 64
  store i64 %mul, ptr %aligned_offset, align 8
  %1 = load i64, ptr %offset.addr, align 8
  %2 = load i64, ptr %aligned_offset, align 8
  %sub = sub i64 %1, %2
  store i64 %sub, ptr %redundant_bits, align 8
  %3 = load i64, ptr %nbits.addr, align 8
  %4 = load i64, ptr %redundant_bits, align 8
  %add = add i64 %3, %4
  store i64 %add, ptr %bits_to_count, align 8
  %5 = load ptr, ptr %bitmap.addr, align 8
  %6 = load i64, ptr %aligned_offset, align 8
  %div1 = udiv i64 %6, 64
  %add.ptr = getelementptr i64, ptr %5, i64 %div1
  store ptr %add.ptr, ptr %bitmap_start, align 8
  %7 = load ptr, ptr %bitmap_start, align 8
  %8 = load i64, ptr %bits_to_count, align 8
  %call = call i64 @bitmap_count_one(ptr noundef %7, i64 noundef %8)
  %9 = load ptr, ptr %bitmap_start, align 8
  %10 = load i64, ptr %redundant_bits, align 8
  %call2 = call i64 @bitmap_count_one(ptr noundef %9, i64 noundef %10)
  %sub3 = sub i64 %call, %call2
  ret i64 %sub3
}

; Function Attrs: nounwind sspstrong uwtable
define internal void @migration_clear_memory_region_dirty_bitmap_range(ptr noundef %rb, i64 noundef %start, i64 noundef %npages) #0 {
entry:
  %rb.addr = alloca ptr, align 8
  %start.addr = alloca i64, align 8
  %npages.addr = alloca i64, align 8
  %i = alloca i64, align 8
  %chunk_pages = alloca i64, align 8
  %chunk_start = alloca i64, align 8
  %chunk_end = alloca i64, align 8
  store ptr %rb, ptr %rb.addr, align 8
  store i64 %start, ptr %start.addr, align 8
  store i64 %npages, ptr %npages.addr, align 8
  %0 = load ptr, ptr %rb.addr, align 8
  %clear_bmap_shift = getelementptr inbounds %struct.RAMBlock, ptr %0, i32 0, i32 18
  %1 = load i8, ptr %clear_bmap_shift, align 8
  %conv = zext i8 %1 to i32
  %sh_prom = zext i32 %conv to i64
  %shl = shl i64 1, %sh_prom
  store i64 %shl, ptr %chunk_pages, align 8
  %2 = load i64, ptr %start.addr, align 8
  %3 = load i64, ptr %chunk_pages, align 8
  %div = udiv i64 %2, %3
  %4 = load i64, ptr %chunk_pages, align 8
  %mul = mul i64 %div, %4
  store i64 %mul, ptr %chunk_start, align 8
  %5 = load i64, ptr %start.addr, align 8
  %6 = load i64, ptr %npages.addr, align 8
  %add = add i64 %5, %6
  %7 = load i64, ptr %chunk_pages, align 8
  %add1 = add i64 %add, %7
  %sub = sub i64 %add1, 1
  %8 = load i64, ptr %chunk_pages, align 8
  %div2 = udiv i64 %sub, %8
  %9 = load i64, ptr %chunk_pages, align 8
  %mul3 = mul i64 %div2, %9
  store i64 %mul3, ptr %chunk_end, align 8
  %10 = load i64, ptr %chunk_start, align 8
  store i64 %10, ptr %i, align 8
  br label %for.cond

for.cond:                                         ; preds = %for.inc, %entry
  %11 = load i64, ptr %i, align 8
  %12 = load i64, ptr %chunk_end, align 8
  %cmp = icmp ult i64 %11, %12
  br i1 %cmp, label %for.body, label %for.end

for.body:                                         ; preds = %for.cond
  %13 = load ptr, ptr %rb.addr, align 8
  %14 = load i64, ptr %i, align 8
  call void @migration_clear_memory_region_dirty_bitmap(ptr noundef %13, i64 noundef %14)
  br label %for.inc

for.inc:                                          ; preds = %for.body
  %15 = load i64, ptr %chunk_pages, align 8
  %16 = load i64, ptr %i, align 8
  %add5 = add i64 %16, %15
  store i64 %add5, ptr %i, align 8
  br label %for.cond, !llvm.loop !44

for.end:                                          ; preds = %for.cond
  ret void
}

; Function Attrs: nounwind sspstrong uwtable
define internal i64 @int128_get64(i64 noundef %a.coerce0, i64 noundef %a.coerce1) #0 {
entry:
  %a = alloca i128, align 16
  %a.addr = alloca i128, align 16
  %r = alloca i64, align 8
  %0 = getelementptr inbounds { i64, i64 }, ptr %a, i32 0, i32 0
  store i64 %a.coerce0, ptr %0, align 16
  %1 = getelementptr inbounds { i64, i64 }, ptr %a, i32 0, i32 1
  store i64 %a.coerce1, ptr %1, align 8
  %a1 = load i128, ptr %a, align 16
  store i128 %a1, ptr %a.addr, align 16
  %2 = load i128, ptr %a.addr, align 16
  %conv = trunc i128 %2 to i64
  store i64 %conv, ptr %r, align 8
  %3 = load i64, ptr %r, align 8
  %conv2 = zext i64 %3 to i128
  %4 = load i128, ptr %a.addr, align 16
  %cmp = icmp eq i128 %conv2, %4
  br i1 %cmp, label %if.then, label %if.else

if.then:                                          ; preds = %entry
  br label %if.end

if.else:                                          ; preds = %entry
  call void @__assert_fail(ptr noundef @.str.29, ptr noundef @.str.30, i32 noundef 33, ptr noundef @__PRETTY_FUNCTION__.int128_get64) #14
  unreachable

if.end:                                           ; preds = %if.then
  %5 = load i64, ptr %r, align 8
  ret i64 %5
}

; Function Attrs: nounwind sspstrong uwtable
define internal void @dirty_bitmap_clear_section(ptr noundef %section, ptr noundef %opaque) #0 {
entry:
  %section.addr = alloca ptr, align 8
  %opaque.addr = alloca ptr, align 8
  %offset = alloca i64, align 8
  %size = alloca i64, align 8
  %coerce = alloca i128, align 16
  %start = alloca i64, align 8
  %npages = alloca i64, align 8
  %rb = alloca ptr, align 8
  %cleared_bits = alloca ptr, align 8
  store ptr %section, ptr %section.addr, align 8
  store ptr %opaque, ptr %opaque.addr, align 8
  %0 = load ptr, ptr %section.addr, align 8
  %offset_within_region = getelementptr inbounds %struct.MemoryRegionSection, ptr %0, i32 0, i32 3
  %1 = load i64, ptr %offset_within_region, align 16
  store i64 %1, ptr %offset, align 8
  %2 = load ptr, ptr %section.addr, align 8
  %size1 = getelementptr inbounds %struct.MemoryRegionSection, ptr %2, i32 0, i32 0
  %3 = load i128, ptr %size1, align 16
  store i128 %3, ptr %coerce, align 16
  %4 = getelementptr inbounds { i64, i64 }, ptr %coerce, i32 0, i32 0
  %5 = load i64, ptr %4, align 16
  %6 = getelementptr inbounds { i64, i64 }, ptr %coerce, i32 0, i32 1
  %7 = load i64, ptr %6, align 8
  %call = call i64 @int128_get64(i64 noundef %5, i64 noundef %7)
  store i64 %call, ptr %size, align 8
  %8 = load i64, ptr %offset, align 8
  %shr = lshr i64 %8, 12
  store i64 %shr, ptr %start, align 8
  %9 = load i64, ptr %size, align 8
  %shr2 = lshr i64 %9, 12
  store i64 %shr2, ptr %npages, align 8
  %10 = load ptr, ptr %section.addr, align 8
  %mr = getelementptr inbounds %struct.MemoryRegionSection, ptr %10, i32 0, i32 1
  %11 = load ptr, ptr %mr, align 16
  %ram_block = getelementptr inbounds %struct.MemoryRegion, ptr %11, i32 0, i32 11
  %12 = load ptr, ptr %ram_block, align 8
  store ptr %12, ptr %rb, align 8
  %13 = load ptr, ptr %opaque.addr, align 8
  store ptr %13, ptr %cleared_bits, align 8
  %call3 = call zeroext i1 @migration_in_postcopy()
  br i1 %call3, label %if.end, label %land.lhs.true

land.lhs.true:                                    ; preds = %entry
  %call4 = call zeroext i1 @migrate_background_snapshot()
  br i1 %call4, label %if.end, label %if.then

if.then:                                          ; preds = %land.lhs.true
  %14 = load ptr, ptr %rb, align 8
  %15 = load i64, ptr %start, align 8
  %16 = load i64, ptr %npages, align 8
  call void @migration_clear_memory_region_dirty_bitmap_range(ptr noundef %14, i64 noundef %15, i64 noundef %16)
  br label %if.end

if.end:                                           ; preds = %if.then, %land.lhs.true, %entry
  %17 = load ptr, ptr %rb, align 8
  %bmap = getelementptr inbounds %struct.RAMBlock, ptr %17, i32 0, i32 15
  %18 = load ptr, ptr %bmap, align 8
  %19 = load i64, ptr %start, align 8
  %20 = load i64, ptr %npages, align 8
  %call5 = call i64 @bitmap_count_one_with_offset(ptr noundef %18, i64 noundef %19, i64 noundef %20)
  %21 = load ptr, ptr %cleared_bits, align 8
  %22 = load i64, ptr %21, align 8
  %add = add i64 %22, %call5
  store i64 %add, ptr %21, align 8
  %23 = load ptr, ptr %rb, align 8
  %bmap6 = getelementptr inbounds %struct.RAMBlock, ptr %23, i32 0, i32 15
  %24 = load ptr, ptr %bmap6, align 8
  %25 = load i64, ptr %start, align 8
  %26 = load i64, ptr %npages, align 8
  call void @bitmap_clear(ptr noundef %24, i64 noundef %25, i64 noundef %26)
  ret void
}