; Function Attrs: nounwind sspstrong uwtable
define internal void @dirty_bitmap_clear_section(ptr noundef readonly captures(none) %section, ptr noundef captures(none) %opaque) #0 {
entry:
  %0 = load i128, ptr %section, align 16
  %cmp.i = icmp ult i128 %0, 18446744073709551616
  br i1 %cmp.i, label %int128_get64.exit, label %if.else.i

if.else.i:                                        ; preds = %entry
  tail call void @__assert_fail(ptr noundef nonnull @.str.29, ptr noundef nonnull @.str.30, i32 noundef 33, ptr noundef nonnull @__PRETTY_FUNCTION__.int128_get64) #19
  unreachable

int128_get64.exit:                                ; preds = %entry
  %coerce.sroa.0.0.extract.trunc = trunc nuw i128 %0 to i64
  %offset_within_region = getelementptr inbounds nuw i8, ptr %section, i64 32
  %1 = load i64, ptr %offset_within_region, align 16
  %shr = lshr i64 %1, 12
  %shr2 = lshr i64 %coerce.sroa.0.0.extract.trunc, 12
  %mr = getelementptr inbounds nuw i8, ptr %section, i64 16
  %2 = load ptr, ptr %mr, align 16
  %ram_block = getelementptr inbounds nuw i8, ptr %2, i64 56
  %3 = load ptr, ptr %ram_block, align 8
  %call3 = tail call zeroext i1 @migration_in_postcopy() #18
  br i1 %call3, label %if.end, label %land.lhs.true

land.lhs.true:                                    ; preds = %int128_get64.exit
  %call4 = tail call zeroext i1 @migrate_background_snapshot() #18
  br i1 %call4, label %if.end, label %if.then

if.then:                                          ; preds = %land.lhs.true
  %clear_bmap_shift.i = getelementptr inbounds nuw i8, ptr %3, i64 408
  %4 = load i8, ptr %clear_bmap_shift.i, align 8
  %sh_prom.i = zext nneg i8 %4 to i64
  %shl.i = shl nuw i64 1, %sh_prom.i
  %5 = shl nsw i64 -1, %sh_prom.i
  %mul11.i = and i64 %5, %shr
  %add.i = add nsw i64 %shr2, -1
  %add1.i = add nsw i64 %add.i, %shr
  %sub.i = add i64 %add1.i, %shl.i
  %mul313.i = and i64 %sub.i, %5
  %cmp14.i = icmp ult i64 %mul11.i, %mul313.i
  br i1 %cmp14.i, label %for.body.i, label %if.end

for.body.i:                                       ; preds = %if.then, %for.body.i
  %i.015.i = phi i64 [ %add5.i, %for.body.i ], [ %mul11.i, %if.then ]
  tail call fastcc void @migration_clear_memory_region_dirty_bitmap(ptr noundef %3, i64 noundef %i.015.i)
  %add5.i = add i64 %i.015.i, %shl.i
  %cmp.i9 = icmp ult i64 %add5.i, %mul313.i
  br i1 %cmp.i9, label %for.body.i, label %if.end, !llvm.loop !82

if.end:                                           ; preds = %for.body.i, %if.then, %land.lhs.true, %int128_get64.exit
  %bmap = getelementptr inbounds nuw i8, ptr %3, i64 384
  %6 = load ptr, ptr %bmap, align 8
  %div5.i = lshr i64 %1, 18
  %sub.i10 = and i64 %shr, 63
  %add.i11 = add nuw nsw i64 %sub.i10, %shr2
  %add.ptr.i = getelementptr i64, ptr %6, i64 %div5.i
  %tobool.not.i.i = icmp eq i64 %add.i11, 0
  br i1 %tobool.not.i.i, label %bitmap_count_one.exit.i, label %if.end.i.i

if.end.i.i:                                       ; preds = %if.end
  %cmp.i.i = icmp samesign ult i64 %add.i11, 65
  br i1 %cmp.i.i, label %if.then5.i.i, label %if.else.i.i

if.then5.i.i:                                     ; preds = %if.end.i.i
  %7 = load i64, ptr %add.ptr.i, align 8
  %sub.i.i = sub nsw i64 0, %add.i11
  %and.i.i = and i64 %sub.i.i, 63
  %shr.i.i = lshr i64 -1, %and.i.i
  %and6.i.i = and i64 %7, %shr.i.i
  %8 = tail call range(i64 0, 65) i64 @llvm.ctpop.i64(i64 %and6.i.i)
  br label %bitmap_count_one.exit.i

if.else.i.i:                                      ; preds = %if.end.i.i
  %call8.i.i = tail call i64 @slow_bitmap_count_one(ptr noundef %add.ptr.i, i64 noundef range(i64 -4503599627370432, 9007199254740991) %add.i11) #18
  br label %bitmap_count_one.exit.i

bitmap_count_one.exit.i:                          ; preds = %if.else.i.i, %if.then5.i.i, %if.end
  %retval.0.i.i = phi i64 [ %8, %if.then5.i.i ], [ %call8.i.i, %if.else.i.i ], [ 0, %if.end ]
  %tobool.not.i6.i = icmp eq i64 %sub.i10, 0
  br i1 %tobool.not.i6.i, label %bitmap_count_one_with_offset.exit, label %if.end.i7.i

if.end.i7.i:                                      ; preds = %bitmap_count_one.exit.i
  %9 = load i64, ptr %add.ptr.i, align 8
  %sub.i13.i = sub nsw i64 0, %shr
  %and.i14.i = and i64 %sub.i13.i, 63
  %shr.i15.i = lshr i64 -1, %and.i14.i
  %and6.i16.i = and i64 %9, %shr.i15.i
  %10 = tail call range(i64 0, 65) i64 @llvm.ctpop.i64(i64 %and6.i16.i)
  br label %bitmap_count_one_with_offset.exit

bitmap_count_one_with_offset.exit:                ; preds = %bitmap_count_one.exit.i, %if.end.i7.i
  %retval.0.i11.i = phi i64 [ %10, %if.end.i7.i ], [ 0, %bitmap_count_one.exit.i ]
  %sub3.i = sub i64 %retval.0.i.i, %retval.0.i11.i
  %11 = load i64, ptr %opaque, align 8
  %add = add i64 %sub3.i, %11
  store i64 %add, ptr %opaque, align 8
  %12 = load ptr, ptr %bmap, align 8
  tail call void @bitmap_clear(ptr noundef %12, i64 noundef %shr, i64 noundef %shr2) #18
  ret void
}